; Function Attrs: mustprogress uwtable
define hidden noundef ptr @_ZN11tbv_manager7projectERK10bit_vectorRK3tbv(ptr noundef nonnull align 8 dereferenceable(552) %0, ptr noundef nonnull readonly align 8 captures(none) dereferenceable(16) %1, ptr noundef nonnull readonly align 4 captures(none) dereferenceable(4) %2) local_unnamed_addr #5 align 2 {
  %4 = tail call noundef ptr @_ZN24fixed_bit_vector_manager8allocateEv(ptr noundef nonnull align 8 dereferenceable(552) %0)
  %5 = tail call noundef nonnull align 4 dereferenceable(4) ptr @_ZNK24fixed_bit_vector_manager5fill0ER16fixed_bit_vector(ptr noundef nonnull align 8 dereferenceable(552) %0, ptr noundef nonnull align 4 dereferenceable(4) %4)
  %6 = load i32, ptr %1, align 8, !tbaa !24
  %.not15 = icmp eq i32 %6, 0
  br i1 %.not15, label %._crit_edge, label %.lr.ph

.lr.ph:                                           ; preds = %3
  %7 = getelementptr inbounds nuw i8, ptr %1, i64 8
  %8 = load ptr, ptr %7, align 8, !tbaa !27
  br label %9

9:                                                ; preds = %.lr.ph, %44
  %.014 = phi i32 [ 0, %.lr.ph ], [ %45, %44 ]
  %.01213 = phi i32 [ 0, %.lr.ph ], [ %.1, %44 ]
  %10 = lshr i32 %.014, 5
  %11 = zext nneg i32 %10 to i64
  %12 = getelementptr inbounds nuw i32, ptr %8, i64 %11
  %13 = load i32, ptr %12, align 4, !tbaa !17
  %14 = and i32 %.014, 31
  %15 = shl nuw i32 1, %14
  %16 = and i32 %13, %15
  %.not = icmp eq i32 %16, 0
  br i1 %.not, label %17, label %44

17:                                               ; preds = %9
  %18 = shl i32 %.014, 1
  %19 = lshr i32 %18, 5
  %20 = zext nneg i32 %19 to i64
  %21 = getelementptr inbounds nuw [1 x i32], ptr %2, i64 0, i64 %20
  %22 = load i32, ptr %21, align 4, !tbaa !17
  %23 = and i32 %18, 30
  %24 = shl nuw nsw i32 1, %23
  %25 = and i32 %22, %24
  %.not.i.i = icmp ne i32 %25, 0
  %26 = shl nuw i32 2, %23
  %27 = and i32 %22, %26
  %28 = icmp ne i32 %27, 0
  %.neg = sext i1 %28 to i32
  %29 = shl i32 %.01213, 1
  %sext.i = sext i1 %.not.i.i to i32
  %30 = lshr i32 %29, 5
  %31 = zext nneg i32 %30 to i64
  %32 = getelementptr inbounds nuw [1 x i32], ptr %4, i64 0, i64 %31
  %33 = load i32, ptr %32, align 4, !tbaa !17
  %34 = xor i32 %33, %sext.i
  %35 = and i32 %29, 30
  %36 = shl nuw nsw i32 1, %35
  %37 = and i32 %34, %36
  %38 = xor i32 %33, %.neg
  %39 = shl nuw i32 2, %35
  %40 = and i32 %38, %39
  %41 = or disjoint i32 %37, %40
  %42 = xor i32 %41, %33
  store i32 %42, ptr %32, align 4, !tbaa !17
  %43 = add i32 %.01213, 1
  br label %44

44:                                               ; preds = %9, %17
  %.1 = phi i32 [ %.01213, %9 ], [ %43, %17 ]
  %45 = add nuw i32 %.014, 1
  %exitcond.not = icmp eq i32 %45, %6
  br i1 %exitcond.not, label %._crit_edge, label %9, !llvm.loop !28

._crit_edge:                                      ; preds = %44, %3
  ret ptr %4
}